; Function Attrs: mustprogress uwtable
define noundef double @_ZNK8QuantLib14RiskyAssetSwap9parCouponEv(ptr noundef nonnull align 8 dereferenceable(520) %this) local_unnamed_addr #8 align 2 {
entry:
  %yieldTS_ = getelementptr inbounds nuw i8, ptr %this, i64 480
  %call = tail call noundef nonnull align 8 dereferenceable(16) ptr @_ZNK8QuantLib6HandleINS_18YieldTermStructureEEptEv(ptr noundef nonnull align 8 dereferenceable(16) %yieldTS_)
  %0 = load ptr, ptr %call, align 8, !tbaa !117
  %cmp.not.i = icmp eq ptr %0, null
  br i1 %cmp.not.i, label %cond.false.i, label %_ZNK5boost10shared_ptrIN8QuantLib18YieldTermStructureEEptEv.exit, !prof !119

cond.false.i:                                     ; preds = %entry
  tail call void @_ZN5boost16assertion_failedEPKcS1_S1_l(ptr noundef nonnull @.str.7, ptr noundef nonnull @__PRETTY_FUNCTION__._ZNK5boost10shared_ptrIN8QuantLib18YieldTermStructureEEptEv, ptr noundef nonnull @.str.8, i64 noundef 784)
  %.pre.i = load ptr, ptr %call, align 8, !tbaa !117
  br label %_ZNK5boost10shared_ptrIN8QuantLib18YieldTermStructureEEptEv.exit

_ZNK5boost10shared_ptrIN8QuantLib18YieldTermStructureEEptEv.exit: ; preds = %entry, %cond.false.i
  %1 = phi ptr [ %0, %entry ], [ %.pre.i, %cond.false.i ]
  %dates_.i = getelementptr inbounds nuw i8, ptr %this, i64 232
  %2 = load ptr, ptr %dates_.i, align 8, !tbaa !3
  %call.i = tail call noundef double @_ZNK8QuantLib13TermStructure17timeFromReferenceERKNS_4DateE(ptr noundef nonnull align 8 dereferenceable(64) %1, ptr noundef nonnull align 8 dereferenceable(8) %2)
  %call2.i = tail call noundef double @_ZNK8QuantLib18YieldTermStructure8discountEdb(ptr noundef nonnull align 8 dereferenceable(152) %1, double noundef %call.i, i1 noundef zeroext false)
  %call7 = tail call noundef nonnull align 8 dereferenceable(16) ptr @_ZNK8QuantLib6HandleINS_18YieldTermStructureEEptEv(ptr noundef nonnull align 8 dereferenceable(16) %yieldTS_)
  %3 = load ptr, ptr %call7, align 8, !tbaa !117
  %cmp.not.i1 = icmp eq ptr %3, null
  br i1 %cmp.not.i1, label %cond.false.i2, label %_ZNK5boost10shared_ptrIN8QuantLib18YieldTermStructureEEptEv.exit4, !prof !119

cond.false.i2:                                    ; preds = %_ZNK5boost10shared_ptrIN8QuantLib18YieldTermStructureEEptEv.exit
  tail call void @_ZN5boost16assertion_failedEPKcS1_S1_l(ptr noundef nonnull @.str.7, ptr noundef nonnull @__PRETTY_FUNCTION__._ZNK5boost10shared_ptrIN8QuantLib18YieldTermStructureEEptEv, ptr noundef nonnull @.str.8, i64 noundef 784)
  %.pre.i3 = load ptr, ptr %call7, align 8, !tbaa !117
  br label %_ZNK5boost10shared_ptrIN8QuantLib18YieldTermStructureEEptEv.exit4

_ZNK5boost10shared_ptrIN8QuantLib18YieldTermStructureEEptEv.exit4: ; preds = %_ZNK5boost10shared_ptrIN8QuantLib18YieldTermStructureEEptEv.exit, %cond.false.i2
  %4 = phi ptr [ %3, %_ZNK5boost10shared_ptrIN8QuantLib18YieldTermStructureEEptEv.exit ], [ %.pre.i3, %cond.false.i2 ]
  %_M_finish.i.i = getelementptr inbounds nuw i8, ptr %this, i64 240
  %5 = load ptr, ptr %_M_finish.i.i, align 8, !tbaa !3
  %add.ptr.i.i = getelementptr inbounds i8, ptr %5, i64 -8
  %call.i6 = tail call noundef double @_ZNK8QuantLib13TermStructure17timeFromReferenceERKNS_4DateE(ptr noundef nonnull align 8 dereferenceable(64) %4, ptr noundef nonnull align 8 dereferenceable(8) %add.ptr.i.i)
  %call2.i7 = tail call noundef double @_ZNK8QuantLib18YieldTermStructure8discountEdb(ptr noundef nonnull align 8 dereferenceable(152) %4, double noundef %call.i6, i1 noundef zeroext false)
  %sub = fsub double %call2.i, %call2.i7
  %fixedAnnuity_ = getelementptr inbounds nuw i8, ptr %this, i64 104
  %6 = load double, ptr %fixedAnnuity_, align 8, !tbaa !121
  %div = fdiv double %sub, %6
  ret double %div
}